(i__main__
Admin
p0
(dp1
S'pswrd'
p2
S'superuser.123'
p3
sS'type'
p4
I0
sS'id'
p5
S'Admin987'
p6
sb.(i__main__
Member
p0
(dp1
S'pswrd'
p2
S'12kd@'
p3
sS'type'
p4
I2
sS'id'
p5
S'@kdsharma'
p6
sS'eno'
p7
S'F0001'
p8
sb.(i__main__
Member
p0
(dp1
S'pswrd'
p2
S'12pk@'
p3
sS'type'
p4
I2
sS'id'
p5
S'@pksingh'
p6
sS'eno'
p7
S'F0002'
p8
sb.(i__main__
Member
p0
(dp1
S'pswrd'
p2
S'12td@'
p3
sS'type'
p4
I2
sS'id'
p5
S'@kdmalhotra'
p6
sS'eno'
p7
S'F0003'
p8
sb.(i__main__
Member
p0
(dp1
S'pswrd'
p2
S'12td@'
p3
sS'type'
p4
I2
sS'id'
p5
S'@tdmalhotra'
p6
sS'eno'
p7
S'F0004'
p8
sb.(i__main__
Member
p0
(dp1
S'pswrd'
p2
S'12yg@'
p3
sS'type'
p4
I2
sS'id'
p5
S'@ygupta'
p6
sS'eno'
p7
S'F0005'
p8
sb.(i__main__
Member
p0
(dp1
S'pswrd'
p2
S'12ck@'
p3
sS'type'
p4
I2
sS'id'
p5
S'@ckpathak'
p6
sS'eno'
p7
S'F0006'
p8
sb.(i__main__
Member
p0
(dp1
S'pswrd'
p2
S'12da@'
p3
sS'type'
p4
I1
sS'id'
p5
S'@divyanshi'
p6
sS'eno'
p7
S'S0001'
p8
sb.(i__main__
Member
p0
(dp1
S'pswrd'
p2
S'12ag@'
p3
sS'type'
p4
I1
sS'id'
p5
S'@anukriti'
p6
sS'eno'
p7
S'S0002'
p8
sb.(i__main__
Member
p0
(dp1
S'pswrd'
p2
S'12as@'
p3
sS'type'
p4
I1
sS'id'
p5
S'@avni'
p6
sS'eno'
p7
S'S0003'
p8
sb.(i__main__
Member
p0
(dp1
S'pswrd'
p2
S'12pa@'
p3
sS'type'
p4
I1
sS'id'
p5
S'@priyanshi'
p6
sS'eno'
p7
S'S0004'
p8
sb.(i__main__
Member
p0
(dp1
S'pswrd'
p2
S'12as@'
p3
sS'type'
p4
I1
sS'id'
p5
S'@ananya'
p6
sS'eno'
p7
S'S0005'
p8
sb.(i__main__
Member
p0
(dp1
S'pswrd'
p2
S'12ag@'
p3
sS'type'
p4
I1
sS'id'
p5
S'@agravi'
p6
sS'eno'
p7
S'S0007'
p8
sb.(i__main__
Member
p0
(dp1
S'pswrd'
p2
S'12ak@'
p3
sS'type'
p4
I1
sS'id'
p5
S'@ayushi'
p6
sS'eno'
p7
S'S0008'
p8
sb.(i__main__
Member
p0
(dp1
S'pswrd'
p2
S'12gk@'
p3
sS'type'
p4
I2
sS'id'
p5
S'@gkumar'
p6
sS'eno'
p7
S'F0007'
p8
sb.(i__main__
Member
p0
(dp1
S'pswrd'
p2
S'12gk@'
p3
sS'type'
p4
I2
sS'id'
p5
S'@gkkapoor'
p6
sS'eno'
p7
S'F0008'
p8
sb.