(i__main__
Student
p0
(dp1
S'scl'
p2
F48000.0
sS'fee'
p3
F172000.0
sS'name'
p4
S'Divyanshi Agarwal'
p5
sS'address'
p6
S'Bandhu Villa,Meerut'
p7
sS'batch'
p8
S'MRTR57A01'
p9
sS'eno'
p10
S'S0001'
p11
sS'contactNo'
p12
S'4783589375'
p13
sS'marks'
p14
(lp15
(lp16
I98
aI76
aI101
aa(lp17
I98
aI78
aI86
aa(lp18
I87
aI89
aI98
aasS'rpi'
p19
F150.06
sS'feepaid'
p20
I172000
sb.(i__main__
Student
p0
(dp1
S'scl'
p2
I0
sS'fee'
p3
I220000
sS'name'
p4
S'Anukriti Garg'
p5
sS'address'
p6
S'Mansarover,Meerut'
p7
sS'batch'
p8
S'MRTW57B01'
p9
sS'eno'
p10
S'S0002'
p11
sS'contactNo'
p12
S'9458475843'
p13
sS'marks'
p14
(lp15
(lp16
I56
aI65
aI76
aa(lp17
I99
aI100
aI120
aa(lp18
I89
aI82
aI95
aasS'rpi'
p19
F55.08
sS'feepaid'
p20
I220000
sb.(i__main__
Student
p0
(dp1
S'scl'
p2
F24000.0
sS'fee'
p3
F86000.0
sS'name'
p4
S'Priyanshi Agarwal'
p5
sS'address'
p6
S'Bandhu Villa, Meerut'
p7
sS'batch'
p8
S'MRTR67A01'
p9
sS'eno'
p10
S'S0004'
p11
sS'contactNo'
p12
S'9867542342'
p13
sS'marks'
p14
(lp15
(lp16
I98
aI103
aI88
aa(lp17
I98
aI78
aI89
aasS'rpi'
p18
F79.83
sS'feepaid'
p19
I86000
sb.(i__main__
Student
p0
(dp1
S'scl'
p2
I0
sS'fee'
p3
I110000
sS'name'
p4
S'Ananya Solanki'
p5
sS'address'
p6
S'BC Lines,Meerut'
p7
sS'batch'
p8
S'MRTR67B01'
p9
sS'eno'
p10
S'S0005'
p11
sS'contactNo'
p12
S'8438938483'
p13
sS'marks'
p14
(lp15
(lp16
I87
aI56
aI54
aa(lp17
I67
aI89
aI72
aasS'rpi'
p18
F54.58
sS'feepaid'
p19
I34000
sb.(i__main__
Student
p0
(dp1
S'scl'
p2
I0
sS'fee'
p3
I110000
sS'name'
p4
S'Agravi Gupta'
p5
sS'address'
p6
S'Roorkee Road, Meerut'
p7
sS'batch'
p8
S'MRTW67B01'
p9
sS'eno'
p10
S'S0007'
p11
sS'contactNo'
p12
S'08484343434'
p13
sS'marks'
p14
(lp15
(lp16
I87
aI55
aI45
aa(lp17
I98
aI63
aI55
aasS'rpi'
p18
F51.55
sS'feepaid'
p19
I93200
sb.(i__main__
Student
p0
(dp1
S'scl'
p2
I0
sS'fee'
p3
I220000
sS'name'
p4
S'Ayushi Kansal'
p5
sS'address'
p6
S'Civil Lines, Meerut'
p7
sS'batch'
p8
S'MRTR57B01'
p9
sS'eno'
p10
S'S0008'
p11
sS'contactNo'
p12
S'09886645367'
p13
sS'marks'
p14
(lp15
(lp16
I67
aI57
aI78
aa(lp17
I90
aI84
aI75
aasS'rpi'
p18
F56.72
sS'feepaid'
p19
I110000
sb.
